; Function Attrs: mustprogress nounwind uwtable
define hidden void @_ZN3ue217ComponentBoundaryD0Ev(ptr noundef nonnull align 8 dereferenceable(72) initializes((0, 8)) %0) unnamed_addr #2 align 2 personality ptr @__gxx_personality_v0 {
  store ptr getelementptr inbounds nuw inrange(-16, 120) (i8, ptr @_ZTVN3ue217ComponentBoundaryE, i64 16), ptr %0, align 8
  %2 = getelementptr inbounds nuw i8, ptr %0, i64 48
  %3 = load ptr, ptr %2, align 8
  %.not.i.i.i.i = icmp eq ptr %3, null
  br i1 %.not.i.i.i.i, label %_ZNSt6vectorIN3ue212PositionInfoESaIS1_EED2Ev.exit.i, label %4

4:                                                ; preds = %1
  tail call void @_ZdlPv(ptr noundef nonnull %3) #14
  br label %_ZNSt6vectorIN3ue212PositionInfoESaIS1_EED2Ev.exit.i

_ZNSt6vectorIN3ue212PositionInfoESaIS1_EED2Ev.exit.i: ; preds = %4, %1
  %5 = getelementptr inbounds nuw i8, ptr %0, i64 24
  %6 = load ptr, ptr %5, align 8
  %.not.i.i.i1.i = icmp eq ptr %6, null
  br i1 %.not.i.i.i1.i, label %_ZN3ue217ComponentBoundaryD2Ev.exit, label %7

7:                                                ; preds = %_ZNSt6vectorIN3ue212PositionInfoESaIS1_EED2Ev.exit.i
  tail call void @_ZdlPv(ptr noundef nonnull %6) #14
  br label %_ZN3ue217ComponentBoundaryD2Ev.exit

_ZN3ue217ComponentBoundaryD2Ev.exit:              ; preds = %_ZNSt6vectorIN3ue212PositionInfoESaIS1_EED2Ev.exit.i, %7
  tail call void @_ZN3ue29ComponentD2Ev(ptr noundef nonnull align 8 dereferenceable(72) %0) #15
  tail call void @_ZdlPv(ptr noundef nonnull %0) #14
  ret void
}